target datalayout = "e-m:e-p270:32:32-p271:32:32-p272:64:64-i64:64-i128:128-f80:128-n8:16:32:64-S128"
target triple = "x86_64-pc-linux-gnu"

%"class.Ipopt::ReferencedObject.base" = type <{ ptr, i32 }>
%"class.Ipopt::SymTMatrixSpace" = type { %"class.Ipopt::SymMatrixSpace.base", i32, ptr, ptr }
%"class.Ipopt::SymMatrixSpace.base" = type { %"class.Ipopt::MatrixSpace.base" }
%"class.Ipopt::MatrixSpace.base" = type { %"class.Ipopt::ReferencedObject.base", i32, i32 }
%"class.Ipopt::ReferencedObject" = type <{ ptr, i32, [4 x i8] }>
%"class.Ipopt::MatrixSpace" = type { %"class.Ipopt::ReferencedObject.base", i32, i32, [4 x i8] }

@_ZTVN5Ipopt16ReferencedObjectE = linkonce_odr unnamed_addr constant { [4 x ptr] } { [4 x ptr] [ptr null, ptr @_ZTIN5Ipopt16ReferencedObjectE, ptr @_ZN5Ipopt16ReferencedObjectD2Ev, ptr @_ZN5Ipopt16ReferencedObjectD0Ev] }, comdat, align 8
@_ZTVN5Ipopt14SymMatrixSpaceE = linkonce_odr unnamed_addr constant { [6 x ptr] } { [6 x ptr] [ptr null, ptr @_ZTIN5Ipopt14SymMatrixSpaceE, ptr @_ZN5Ipopt16ReferencedObjectD2Ev, ptr @_ZN5Ipopt14SymMatrixSpaceD0Ev, ptr @_ZNK5Ipopt14SymMatrixSpace7MakeNewEv, ptr @__cxa_pure_virtual] }, comdat, align 8
@_ZTVN5Ipopt11MatrixSpaceE = linkonce_odr unnamed_addr constant { [5 x ptr] } { [5 x ptr] [ptr null, ptr @_ZTIN5Ipopt11MatrixSpaceE, ptr @_ZN5Ipopt16ReferencedObjectD2Ev, ptr @_ZN5Ipopt11MatrixSpaceD0Ev, ptr @__cxa_pure_virtual] }, comdat, align 8

; Function Attrs: mustprogress nounwind uwtable
define linkonce_odr void @_ZN5Ipopt16ReferencedObjectC2Ev(ptr noundef nonnull align 8 dereferenceable(12) %0) unnamed_addr #2 comdat align 2 {
  %2 = alloca ptr, align 8
  store ptr %0, ptr %2, align 8, !tbaa !91
  %3 = load ptr, ptr %2, align 8
  store ptr getelementptr inbounds inrange(-16, 16) ({ [4 x ptr] }, ptr @_ZTVN5Ipopt16ReferencedObjectE, i32 0, i32 0, i32 2), ptr %3, align 8, !tbaa !10
  %4 = getelementptr inbounds nuw %"class.Ipopt::ReferencedObject", ptr %3, i32 0, i32 1
  store i32 0, ptr %4, align 8, !tbaa !93
  ret void
}

; Function Attrs: mustprogress nounwind uwtable
define linkonce_odr void @_ZN5Ipopt11MatrixSpaceC2Eii(ptr noundef nonnull align 8 dereferenceable(20) %0, i32 noundef %1, i32 noundef %2) unnamed_addr #2 comdat align 2 {
  %4 = alloca ptr, align 8
  %5 = alloca i32, align 4
  %6 = alloca i32, align 4
  store ptr %0, ptr %4, align 8, !tbaa !84
  store i32 %1, ptr %5, align 4, !tbaa !46
  store i32 %2, ptr %6, align 4, !tbaa !46
  %7 = load ptr, ptr %4, align 8
  call void @_ZN5Ipopt16ReferencedObjectC2Ev(ptr noundef nonnull align 8 dereferenceable(12) %7)
  store ptr getelementptr inbounds inrange(-16, 24) ({ [5 x ptr] }, ptr @_ZTVN5Ipopt11MatrixSpaceE, i32 0, i32 0, i32 2), ptr %7, align 8, !tbaa !10
  %8 = getelementptr inbounds nuw %"class.Ipopt::MatrixSpace", ptr %7, i32 0, i32 1
  %9 = load i32, ptr %5, align 4, !tbaa !46
  store i32 %9, ptr %8, align 4, !tbaa !159
  %10 = getelementptr inbounds nuw %"class.Ipopt::MatrixSpace", ptr %7, i32 0, i32 2
  %11 = load i32, ptr %6, align 4, !tbaa !46
  store i32 %11, ptr %10, align 8, !tbaa !160
  ret void
}

; Function Attrs: mustprogress nounwind uwtable
define linkonce_odr void @_ZN5Ipopt16ReferencedObjectD2Ev(ptr noundef nonnull align 8 dereferenceable(12) %0) unnamed_addr #2 comdat align 2 {
  %2 = alloca ptr, align 8
  store ptr %0, ptr %2, align 8, !tbaa !91
  %3 = load ptr, ptr %2, align 8
  store ptr getelementptr inbounds inrange(-16, 16) ({ [4 x ptr] }, ptr @_ZTVN5Ipopt16ReferencedObjectE, i32 0, i32 0, i32 2), ptr %3, align 8, !tbaa !10
  ret void
}

; Function Attrs: mustprogress uwtable
define linkonce_odr void @_ZN5Ipopt14SymMatrixSpaceC2Ei(ptr noundef nonnull align 8 dereferenceable(20) %0, i32 noundef %1) unnamed_addr #0 comdat align 2 {
  %3 = alloca ptr, align 8
  %4 = alloca i32, align 4
  store ptr %0, ptr %3, align 8, !tbaa !35
  store i32 %1, ptr %4, align 4, !tbaa !46
  %5 = load ptr, ptr %3, align 8
  %6 = load i32, ptr %4, align 4, !tbaa !46
  %7 = load i32, ptr %4, align 4, !tbaa !46
  call void @_ZN5Ipopt11MatrixSpaceC2Eii(ptr noundef nonnull align 8 dereferenceable(20) %5, i32 noundef %6, i32 noundef %7)
  store ptr getelementptr inbounds inrange(-16, 32) ({ [6 x ptr] }, ptr @_ZTVN5Ipopt14SymMatrixSpaceE, i32 0, i32 0, i32 2), ptr %5, align 8, !tbaa !10
  ret void
}

; Function Attrs: mustprogress uwtable
define void @_ZN5Ipopt15SymTMatrixSpaceC2EiiPKiS2_(ptr noundef nonnull align 8 dereferenceable(40) %0, i32 noundef %1, i32 noundef %2, ptr noundef %3, ptr noundef %4) unnamed_addr #0 align 2 personality ptr @__gxx_personality_v0 {
  %6 = alloca ptr, align 8
  %7 = alloca i32, align 4
  %8 = alloca i32, align 4
  %9 = alloca ptr, align 8
  %10 = alloca ptr, align 8
  %11 = alloca ptr, align 8
  %12 = alloca i32, align 4
  %13 = alloca i32, align 4
  store ptr %0, ptr %6, align 8, !tbaa !8
  store i32 %1, ptr %7, align 4, !tbaa !46
  store i32 %2, ptr %8, align 4, !tbaa !46
  store ptr %3, ptr %9, align 8, !tbaa !44
  store ptr %4, ptr %10, align 8, !tbaa !44
  %14 = load ptr, ptr %6, align 8
  %15 = load i32, ptr %7, align 4, !tbaa !46
  call void @_ZN5Ipopt14SymMatrixSpaceC2Ei(ptr noundef nonnull align 8 dereferenceable(20) %14, i32 noundef %15)
  store ptr getelementptr inbounds inrange(-16, 32) ({ [6 x ptr] }, ptr @_ZTVN5Ipopt15SymTMatrixSpaceE, i32 0, i32 0, i32 2), ptr %14, align 8, !tbaa !10
  %16 = getelementptr inbounds nuw %"class.Ipopt::SymTMatrixSpace", ptr %14, i32 0, i32 1
  %17 = load i32, ptr %8, align 4, !tbaa !46
  store i32 %17, ptr %16, align 4, !tbaa !77
  %18 = getelementptr inbounds nuw %"class.Ipopt::SymTMatrixSpace", ptr %14, i32 0, i32 2
  store ptr null, ptr %18, align 8, !tbaa !81
  %19 = getelementptr inbounds nuw %"class.Ipopt::SymTMatrixSpace", ptr %14, i32 0, i32 3
  store ptr null, ptr %19, align 8, !tbaa !82
  %20 = load i32, ptr %8, align 4, !tbaa !46
  %21 = sext i32 %20 to i64
  %22 = call { i64, i1 } @llvm.umul.with.overflow.i64(i64 %21, i64 4)
  %23 = extractvalue { i64, i1 } %22, 1
  %24 = extractvalue { i64, i1 } %22, 0
  %25 = select i1 %23, i64 -1, i64 %24
  %26 = invoke noalias noundef nonnull ptr @_Znam(i64 noundef %25) #14
          to label %27 unwind label %43

27:                                               ; preds = %5
  %28 = getelementptr inbounds nuw %"class.Ipopt::SymTMatrixSpace", ptr %14, i32 0, i32 2
  store ptr %26, ptr %28, align 8, !tbaa !81
  %29 = load i32, ptr %8, align 4, !tbaa !46
  %30 = sext i32 %29 to i64
  %31 = call { i64, i1 } @llvm.umul.with.overflow.i64(i64 %30, i64 4)
  %32 = extractvalue { i64, i1 } %31, 1
  %33 = extractvalue { i64, i1 } %31, 0
  %34 = select i1 %32, i64 -1, i64 %33
  %35 = invoke noalias noundef nonnull ptr @_Znam(i64 noundef %34) #14
          to label %36 unwind label %43

36:                                               ; preds = %27
  %37 = getelementptr inbounds nuw %"class.Ipopt::SymTMatrixSpace", ptr %14, i32 0, i32 3
  store ptr %35, ptr %37, align 8, !tbaa !82
  call void @llvm.lifetime.start.p0(i64 4, ptr %13) #13
  store i32 0, ptr %13, align 4, !tbaa !46
  br label %38

38:                                               ; preds = %68, %36
  %39 = load i32, ptr %13, align 4, !tbaa !46
  %40 = load i32, ptr %8, align 4, !tbaa !46
  %41 = icmp slt i32 %39, %40
  br i1 %41, label %47, label %42

42:                                               ; preds = %38
  call void @llvm.lifetime.end.p0(i64 4, ptr %13) #13
  br label %71

43:                                               ; preds = %27, %5
  %44 = landingpad { ptr, i32 }
          cleanup
  %45 = extractvalue { ptr, i32 } %44, 0
  store ptr %45, ptr %11, align 8
  %46 = extractvalue { ptr, i32 } %44, 1
  store i32 %46, ptr %12, align 4
  call void @_ZN5Ipopt16ReferencedObjectD2Ev(ptr noundef nonnull align 8 dereferenceable(20) %14) #13
  br label %72

47:                                               ; preds = %38
  %48 = load ptr, ptr %9, align 8, !tbaa !44
  %49 = load i32, ptr %13, align 4, !tbaa !46
  %50 = sext i32 %49 to i64
  %51 = getelementptr inbounds i32, ptr %48, i64 %50
  %52 = load i32, ptr %51, align 4, !tbaa !46
  %53 = getelementptr inbounds nuw %"class.Ipopt::SymTMatrixSpace", ptr %14, i32 0, i32 2
  %54 = load ptr, ptr %53, align 8, !tbaa !81
  %55 = load i32, ptr %13, align 4, !tbaa !46
  %56 = sext i32 %55 to i64
  %57 = getelementptr inbounds i32, ptr %54, i64 %56
  store i32 %52, ptr %57, align 4, !tbaa !46
  %58 = load ptr, ptr %10, align 8, !tbaa !44
  %59 = load i32, ptr %13, align 4, !tbaa !46
  %60 = sext i32 %59 to i64
  %61 = getelementptr inbounds i32, ptr %58, i64 %60
  %62 = load i32, ptr %61, align 4, !tbaa !46
  %63 = getelementptr inbounds nuw %"class.Ipopt::SymTMatrixSpace", ptr %14, i32 0, i32 3
  %64 = load ptr, ptr %63, align 8, !tbaa !82
  %65 = load i32, ptr %13, align 4, !tbaa !46
  %66 = sext i32 %65 to i64
  %67 = getelementptr inbounds i32, ptr %64, i64 %66
  store i32 %62, ptr %67, align 4, !tbaa !46
  br label %68

68:                                               ; preds = %47
  %69 = load i32, ptr %13, align 4, !tbaa !46
  %70 = add nsw i32 %69, 1
  store i32 %70, ptr %13, align 4, !tbaa !46
  br label %38, !llvm.loop !83

71:                                               ; preds = %42
  ret void

72:                                               ; preds = %43
  %73 = load ptr, ptr %11, align 8
  %74 = load i32, ptr %12, align 4
  %75 = insertvalue { ptr, i32 } poison, ptr %73, 0
  %76 = insertvalue { ptr, i32 } %75, i32 %74, 1
  resume { ptr, i32 } %76
}