; Function Attrs: mustprogress uwtable
define void @_ZN5Ipopt15SymTMatrixSpaceC2EiiPKiS2_(ptr noundef nonnull writeonly align 8 captures(none) dereferenceable(40) initializes((0, 40)) %0, i32 noundef %1, i32 noundef %2, ptr noundef readonly captures(none) %3, ptr noundef readonly captures(none) %4) unnamed_addr #0 align 2 personality ptr @__gxx_personality_v0 {
  %6 = getelementptr inbounds nuw i8, ptr %0, i64 8
  store i32 0, ptr %6, align 8, !tbaa !3
  %7 = getelementptr inbounds nuw i8, ptr %0, i64 12
  store i32 %1, ptr %7, align 4, !tbaa !64
  %8 = getelementptr inbounds nuw i8, ptr %0, i64 16
  store i32 %1, ptr %8, align 8, !tbaa !72
  store ptr getelementptr inbounds nuw inrange(-16, 32) (i8, ptr @_ZTVN5Ipopt15SymTMatrixSpaceE, i64 16), ptr %0, align 8, !tbaa !8
  %9 = getelementptr inbounds nuw i8, ptr %0, i64 20
  store i32 %2, ptr %9, align 4, !tbaa !34
  %10 = getelementptr inbounds nuw i8, ptr %0, i64 24
  %11 = getelementptr inbounds nuw i8, ptr %0, i64 32
  %12 = zext i32 %2 to i64
  %13 = icmp slt i32 %2, 0
  %14 = shl nuw nsw i64 %12, 2
  %15 = select i1 %13, i64 -1, i64 %14
  tail call void @llvm.memset.p0.i64(ptr noundef nonnull align 8 dereferenceable(16) %10, i8 0, i64 16, i1 false)
  %16 = invoke noalias noundef nonnull ptr @_Znam(i64 noundef %15) #17
          to label %17 unwind label %21

17:                                               ; preds = %5
  store ptr %16, ptr %10, align 8, !tbaa !39
  %18 = invoke noalias noundef nonnull ptr @_Znam(i64 noundef %15) #17
          to label %19 unwind label %21

19:                                               ; preds = %17
  store ptr %18, ptr %11, align 8, !tbaa !40
  %20 = icmp sgt i32 %2, 0
  br i1 %20, label %.lr.ph.preheader, label %._crit_edge

.lr.ph.preheader:                                 ; preds = %19
  tail call void @llvm.memcpy.p0.p0.i64(ptr nonnull align 4 %16, ptr align 4 %3, i64 %14, i1 false), !tbaa !59
  tail call void @llvm.memcpy.p0.p0.i64(ptr nonnull align 4 %18, ptr align 4 %4, i64 %14, i1 false), !tbaa !59
  br label %._crit_edge

._crit_edge:                                      ; preds = %.lr.ph.preheader, %19
  ret void

21:                                               ; preds = %17, %5
  %22 = landingpad { ptr, i32 }
          cleanup
  store ptr getelementptr inbounds nuw inrange(-16, 16) (i8, ptr @_ZTVN5Ipopt16ReferencedObjectE, i64 16), ptr %0, align 8, !tbaa !8
  resume { ptr, i32 } %22
}